target datalayout = "e-m:e-p270:32:32-p271:32:32-p272:64:64-i64:64-i128:128-f80:128-n8:16:32:64-S128"
target triple = "x86_64-pc-linux-gnu"

%struct.MovTextContext = type { ptr, ptr, ptr, ptr, ptr, i32, i32, %struct.StyleBox, %struct.AVBPrint, %struct.HighlightBox, %struct.HilightcolorBox, i8, %struct.StyleBox, i16, ptr, i32, double, i32 }
%struct.AVBPrint = type { ptr, i32, i32, i32, [1 x i8], [1000 x i8] }
%struct.HighlightBox = type { i16, i16 }
%struct.HilightcolorBox = type { i32 }
%struct.StyleBox = type { i16, i16, i8, i16, i8, i32 }

; Function Attrs: nounwind uwtable
define internal void @mov_text_cleanup(ptr noundef %0) #1 {
  %2 = alloca ptr, align 8
  store ptr %0, ptr %2, align 8, !tbaa !29
  %3 = load ptr, ptr %2, align 8, !tbaa !29
  %4 = getelementptr inbounds nuw %struct.MovTextContext, ptr %3, i32 0, i32 5
  store i32 0, ptr %4, align 8, !tbaa !47
  %5 = load ptr, ptr %2, align 8, !tbaa !29
  %6 = getelementptr inbounds nuw %struct.MovTextContext, ptr %5, i32 0, i32 7
  %7 = load ptr, ptr %2, align 8, !tbaa !29
  %8 = getelementptr inbounds nuw %struct.MovTextContext, ptr %7, i32 0, i32 12
  call void @llvm.memcpy.p0.p0.i64(ptr align 8 %6, ptr align 4 %8, i64 16, i1 false), !tbaa.struct !112
  ret void
}

; Function Attrs: nounwind uwtable
define internal i32 @mov_text_style_start(ptr noundef %0) #1 {
  %2 = alloca i32, align 4
  %3 = alloca ptr, align 8
  %4 = alloca ptr, align 8
  %5 = alloca i32, align 4
  store ptr %0, ptr %3, align 8, !tbaa !29
  %6 = load ptr, ptr %3, align 8, !tbaa !29
  %7 = getelementptr inbounds nuw %struct.MovTextContext, ptr %6, i32 0, i32 7
  %8 = getelementptr inbounds nuw %struct.StyleBox, ptr %7, i32 0, i32 0
  %9 = load i16, ptr %8, align 8, !tbaa !109
  %10 = zext i16 %9 to i32
  %11 = load ptr, ptr %3, align 8, !tbaa !29
  %12 = getelementptr inbounds nuw %struct.MovTextContext, ptr %11, i32 0, i32 13
  %13 = load i16, ptr %12, align 4, !tbaa !46
  %14 = zext i16 %13 to i32
  %15 = icmp eq i32 %10, %14
  br i1 %15, label %16, label %17

16:                                               ; preds = %1
  store i32 1, ptr %2, align 4
  br label %146

17:                                               ; preds = %1
  %18 = load ptr, ptr %3, align 8, !tbaa !29
  %19 = getelementptr inbounds nuw %struct.MovTextContext, ptr %18, i32 0, i32 7
  %20 = getelementptr inbounds nuw %struct.StyleBox, ptr %19, i32 0, i32 2
  %21 = load i8, ptr %20, align 4, !tbaa !105
  %22 = zext i8 %21 to i32
  %23 = load ptr, ptr %3, align 8, !tbaa !29
  %24 = getelementptr inbounds nuw %struct.MovTextContext, ptr %23, i32 0, i32 12
  %25 = getelementptr inbounds nuw %struct.StyleBox, ptr %24, i32 0, i32 2
  %26 = load i8, ptr %25, align 4, !tbaa !78
  %27 = zext i8 %26 to i32
  %28 = icmp ne i32 %22, %27
  br i1 %28, label %63, label %29

29:                                               ; preds = %17
  %30 = load ptr, ptr %3, align 8, !tbaa !29
  %31 = getelementptr inbounds nuw %struct.MovTextContext, ptr %30, i32 0, i32 7
  %32 = getelementptr inbounds nuw %struct.StyleBox, ptr %31, i32 0, i32 5
  %33 = load i32, ptr %32, align 4, !tbaa !106
  %34 = load ptr, ptr %3, align 8, !tbaa !29
  %35 = getelementptr inbounds nuw %struct.MovTextContext, ptr %34, i32 0, i32 12
  %36 = getelementptr inbounds nuw %struct.StyleBox, ptr %35, i32 0, i32 5
  %37 = load i32, ptr %36, align 4, !tbaa !77
  %38 = icmp ne i32 %33, %37
  br i1 %38, label %63, label %39

39:                                               ; preds = %29
  %40 = load ptr, ptr %3, align 8, !tbaa !29
  %41 = getelementptr inbounds nuw %struct.MovTextContext, ptr %40, i32 0, i32 7
  %42 = getelementptr inbounds nuw %struct.StyleBox, ptr %41, i32 0, i32 3
  %43 = load i16, ptr %42, align 2, !tbaa !108
  %44 = zext i16 %43 to i32
  %45 = load ptr, ptr %3, align 8, !tbaa !29
  %46 = getelementptr inbounds nuw %struct.MovTextContext, ptr %45, i32 0, i32 12
  %47 = getelementptr inbounds nuw %struct.StyleBox, ptr %46, i32 0, i32 3
  %48 = load i16, ptr %47, align 2, !tbaa !75
  %49 = zext i16 %48 to i32
  %50 = icmp ne i32 %44, %49
  br i1 %50, label %63, label %51

51:                                               ; preds = %39
  %52 = load ptr, ptr %3, align 8, !tbaa !29
  %53 = getelementptr inbounds nuw %struct.MovTextContext, ptr %52, i32 0, i32 7
  %54 = getelementptr inbounds nuw %struct.StyleBox, ptr %53, i32 0, i32 4
  %55 = load i8, ptr %54, align 8, !tbaa !107
  %56 = zext i8 %55 to i32
  %57 = load ptr, ptr %3, align 8, !tbaa !29
  %58 = getelementptr inbounds nuw %struct.MovTextContext, ptr %57, i32 0, i32 12
  %59 = getelementptr inbounds nuw %struct.StyleBox, ptr %58, i32 0, i32 4
  %60 = load i8, ptr %59, align 4, !tbaa !76
  %61 = zext i8 %60 to i32
  %62 = icmp ne i32 %56, %61
  br i1 %62, label %63, label %134

63:                                               ; preds = %51, %39, %29, %17
  call void @llvm.lifetime.start.p0(i64 8, ptr %4) #11
  %64 = load ptr, ptr %3, align 8, !tbaa !29
  %65 = getelementptr inbounds nuw %struct.MovTextContext, ptr %64, i32 0, i32 5
  %66 = load i32, ptr %65, align 8, !tbaa !47
  %67 = add i32 %66, 1
  %68 = zext i32 %67 to i64
  %69 = icmp ugt i64 %68, 65535
  br i1 %69, label %84, label %70

70:                                               ; preds = %63
  %71 = load ptr, ptr %3, align 8, !tbaa !29
  %72 = getelementptr inbounds nuw %struct.MovTextContext, ptr %71, i32 0, i32 4
  %73 = load ptr, ptr %72, align 8, !tbaa !110
  %74 = load ptr, ptr %3, align 8, !tbaa !29
  %75 = getelementptr inbounds nuw %struct.MovTextContext, ptr %74, i32 0, i32 6
  %76 = load ptr, ptr %3, align 8, !tbaa !29
  %77 = getelementptr inbounds nuw %struct.MovTextContext, ptr %76, i32 0, i32 5
  %78 = load i32, ptr %77, align 8, !tbaa !47
  %79 = add i32 %78, 1
  %80 = zext i32 %79 to i64
  %81 = mul i64 %80, 16
  %82 = call ptr @av_fast_realloc(ptr noundef %73, ptr noundef %75, i64 noundef %81)
  store ptr %82, ptr %4, align 8, !tbaa !29
  %83 = icmp ne ptr %82, null
  br i1 %83, label %94, label %84

84:                                               ; preds = %70, %63
  %85 = load ptr, ptr %3, align 8, !tbaa !29
  call void @mov_text_cleanup(ptr noundef %85)
  %86 = load ptr, ptr %3, align 8, !tbaa !29
  %87 = getelementptr inbounds nuw %struct.MovTextContext, ptr %86, i32 0, i32 8
  call void @av_bprint_clear(ptr noundef %87)
  %88 = load ptr, ptr %3, align 8, !tbaa !29
  %89 = getelementptr inbounds nuw %struct.MovTextContext, ptr %88, i32 0, i32 11
  %90 = load i8, ptr %89, align 8, !tbaa !48
  %91 = zext i8 %90 to i32
  %92 = and i32 %91, -2
  %93 = trunc i32 %92 to i8
  store i8 %93, ptr %89, align 8, !tbaa !48
  store i32 0, ptr %2, align 4
  store i32 1, ptr %5, align 4
  br label %131

94:                                               ; preds = %70
  %95 = load ptr, ptr %4, align 8, !tbaa !29
  %96 = load ptr, ptr %3, align 8, !tbaa !29
  %97 = getelementptr inbounds nuw %struct.MovTextContext, ptr %96, i32 0, i32 4
  store ptr %95, ptr %97, align 8, !tbaa !110
  %98 = load ptr, ptr %3, align 8, !tbaa !29
  %99 = getelementptr inbounds nuw %struct.MovTextContext, ptr %98, i32 0, i32 13
  %100 = load i16, ptr %99, align 4, !tbaa !46
  %101 = load ptr, ptr %3, align 8, !tbaa !29
  %102 = getelementptr inbounds nuw %struct.MovTextContext, ptr %101, i32 0, i32 7
  %103 = getelementptr inbounds nuw %struct.StyleBox, ptr %102, i32 0, i32 1
  store i16 %100, ptr %103, align 2, !tbaa !111
  %104 = load ptr, ptr %3, align 8, !tbaa !29
  %105 = getelementptr inbounds nuw %struct.MovTextContext, ptr %104, i32 0, i32 4
  %106 = load ptr, ptr %105, align 8, !tbaa !110
  %107 = load ptr, ptr %3, align 8, !tbaa !29
  %108 = getelementptr inbounds nuw %struct.MovTextContext, ptr %107, i32 0, i32 5
  %109 = load i32, ptr %108, align 8, !tbaa !47
  %110 = add i32 %109, 1
  store i32 %110, ptr %108, align 8, !tbaa !47
  %111 = zext i32 %109 to i64
  %112 = getelementptr inbounds nuw %struct.StyleBox, ptr %106, i64 %111
  %113 = load ptr, ptr %3, align 8, !tbaa !29
  %114 = getelementptr inbounds nuw %struct.MovTextContext, ptr %113, i32 0, i32 7
  call void @llvm.memcpy.p0.p0.i64(ptr align 4 %112, ptr align 8 %114, i64 16, i1 false), !tbaa.struct !112
  %115 = load ptr, ptr %3, align 8, !tbaa !29
  %116 = getelementptr inbounds nuw %struct.MovTextContext, ptr %115, i32 0, i32 11
  %117 = load i8, ptr %116, align 8, !tbaa !48
  %118 = zext i8 %117 to i32
  %119 = or i32 %118, 1
  %120 = trunc i32 %119 to i8
  store i8 %120, ptr %116, align 8, !tbaa !48
  %121 = load ptr, ptr %3, align 8, !tbaa !29
  %122 = getelementptr inbounds nuw %struct.MovTextContext, ptr %121, i32 0, i32 7
  %123 = load ptr, ptr %3, align 8, !tbaa !29
  %124 = getelementptr inbounds nuw %struct.MovTextContext, ptr %123, i32 0, i32 12
  call void @llvm.memcpy.p0.p0.i64(ptr align 8 %122, ptr align 4 %124, i64 16, i1 false), !tbaa.struct !112
  %125 = load ptr, ptr %3, align 8, !tbaa !29
  %126 = getelementptr inbounds nuw %struct.MovTextContext, ptr %125, i32 0, i32 13
  %127 = load i16, ptr %126, align 4, !tbaa !46
  %128 = load ptr, ptr %3, align 8, !tbaa !29
  %129 = getelementptr inbounds nuw %struct.MovTextContext, ptr %128, i32 0, i32 7
  %130 = getelementptr inbounds nuw %struct.StyleBox, ptr %129, i32 0, i32 0
  store i16 %127, ptr %130, align 8, !tbaa !109
  store i32 0, ptr %5, align 4
  br label %131

131:                                              ; preds = %94, %84
  call void @llvm.lifetime.end.p0(i64 8, ptr %4) #11
  %132 = load i32, ptr %5, align 4
  switch i32 %132, label %148 [
    i32 0, label %133
    i32 1, label %146
  ]

133:                                              ; preds = %131
  br label %145

134:                                              ; preds = %51
  %135 = load ptr, ptr %3, align 8, !tbaa !29
  %136 = getelementptr inbounds nuw %struct.MovTextContext, ptr %135, i32 0, i32 7
  %137 = load ptr, ptr %3, align 8, !tbaa !29
  %138 = getelementptr inbounds nuw %struct.MovTextContext, ptr %137, i32 0, i32 12
  call void @llvm.memcpy.p0.p0.i64(ptr align 8 %136, ptr align 4 %138, i64 16, i1 false), !tbaa.struct !112
  %139 = load ptr, ptr %3, align 8, !tbaa !29
  %140 = getelementptr inbounds nuw %struct.MovTextContext, ptr %139, i32 0, i32 13
  %141 = load i16, ptr %140, align 4, !tbaa !46
  %142 = load ptr, ptr %3, align 8, !tbaa !29
  %143 = getelementptr inbounds nuw %struct.MovTextContext, ptr %142, i32 0, i32 7
  %144 = getelementptr inbounds nuw %struct.StyleBox, ptr %143, i32 0, i32 0
  store i16 %141, ptr %144, align 8, !tbaa !109
  br label %145

145:                                              ; preds = %134, %133
  store i32 1, ptr %2, align 4
  br label %146

146:                                              ; preds = %145, %131, %16
  %147 = load i32, ptr %2, align 4
  ret i32 %147

148:                                              ; preds = %131
  unreachable
}