; Function Attrs: nounwind uwtable
define internal fastcc range(i32 0, 2) i32 @mov_text_style_start(ptr noundef %0) unnamed_addr #1 {
  %2 = getelementptr inbounds nuw i8, ptr %0, i64 48
  %3 = load i16, ptr %2, align 8, !tbaa !101
  %4 = getelementptr inbounds nuw i8, ptr %0, i64 1116
  %5 = load i16, ptr %4, align 4, !tbaa !74
  %6 = icmp eq i16 %3, %5
  br i1 %6, label %56, label %7

7:                                                ; preds = %1
  %8 = getelementptr inbounds nuw i8, ptr %0, i64 52
  %9 = load i8, ptr %8, align 4, !tbaa !96
  %10 = getelementptr inbounds nuw i8, ptr %0, i64 1100
  %11 = getelementptr inbounds nuw i8, ptr %0, i64 1104
  %12 = load i8, ptr %11, align 4, !tbaa !49
  %.not = icmp eq i8 %9, %12
  br i1 %.not, label %13, label %28

13:                                               ; preds = %7
  %14 = getelementptr inbounds nuw i8, ptr %0, i64 60
  %15 = load i32, ptr %14, align 4, !tbaa !97
  %16 = getelementptr inbounds nuw i8, ptr %0, i64 1112
  %17 = load i32, ptr %16, align 4, !tbaa !48
  %.not37 = icmp eq i32 %15, %17
  br i1 %.not37, label %18, label %28

18:                                               ; preds = %13
  %19 = getelementptr inbounds nuw i8, ptr %0, i64 54
  %20 = load i16, ptr %19, align 2, !tbaa !100
  %21 = getelementptr inbounds nuw i8, ptr %0, i64 1106
  %22 = load i16, ptr %21, align 2, !tbaa !45
  %.not38 = icmp eq i16 %20, %22
  br i1 %.not38, label %23, label %28

23:                                               ; preds = %18
  %24 = getelementptr inbounds nuw i8, ptr %0, i64 56
  %25 = load i8, ptr %24, align 8, !tbaa !98
  %26 = getelementptr inbounds nuw i8, ptr %0, i64 1108
  %27 = load i8, ptr %26, align 4, !tbaa !47
  %.not39 = icmp eq i8 %25, %27
  br i1 %.not39, label %55, label %28

28:                                               ; preds = %23, %18, %13, %7
  %29 = getelementptr inbounds nuw i8, ptr %0, i64 40
  %30 = load i32, ptr %29, align 8, !tbaa !75
  %31 = add i32 %30, 1
  %32 = icmp ugt i32 %31, 65535
  br i1 %32, label %50, label %33

33:                                               ; preds = %28
  %34 = getelementptr inbounds nuw i8, ptr %0, i64 32
  %35 = load ptr, ptr %34, align 8, !tbaa !102
  %36 = getelementptr inbounds nuw i8, ptr %0, i64 44
  %37 = shl nuw nsw i32 %31, 4
  %38 = zext nneg i32 %37 to i64
  %39 = tail call ptr @av_fast_realloc(ptr noundef %35, ptr noundef nonnull %36, i64 noundef %38) #8
  %.not40 = icmp eq ptr %39, null
  br i1 %.not40, label %50, label %.thread

.thread:                                          ; preds = %33
  store ptr %39, ptr %34, align 8, !tbaa !102
  %40 = load i16, ptr %4, align 4, !tbaa !74
  %41 = getelementptr inbounds nuw i8, ptr %0, i64 50
  store i16 %40, ptr %41, align 2, !tbaa !103
  %42 = load i32, ptr %29, align 8, !tbaa !75
  %43 = add i32 %42, 1
  store i32 %43, ptr %29, align 8, !tbaa !75
  %44 = zext i32 %42 to i64
  %45 = getelementptr inbounds nuw %struct.StyleBox, ptr %39, i64 %44
  tail call void @llvm.memcpy.p0.p0.i64(ptr noundef nonnull align 4 dereferenceable(16) %45, ptr noundef nonnull align 8 dereferenceable(16) %2, i64 16, i1 false), !tbaa.struct !104
  %46 = getelementptr inbounds nuw i8, ptr %0, i64 1096
  %47 = load i8, ptr %46, align 8, !tbaa !76
  %48 = or i8 %47, 1
  store i8 %48, ptr %46, align 8, !tbaa !76
  tail call void @llvm.memcpy.p0.p0.i64(ptr noundef nonnull align 8 dereferenceable(16) %2, ptr noundef nonnull align 4 dereferenceable(16) %10, i64 16, i1 false), !tbaa.struct !104
  %49 = load i16, ptr %4, align 4, !tbaa !74
  store i16 %49, ptr %2, align 8, !tbaa !101
  br label %56

50:                                               ; preds = %28, %33
  store i32 0, ptr %29, align 8, !tbaa !75
  tail call void @llvm.memcpy.p0.p0.i64(ptr noundef nonnull align 8 dereferenceable(16) %2, ptr noundef nonnull align 4 dereferenceable(16) %10, i64 16, i1 false), !tbaa.struct !104
  %51 = getelementptr inbounds nuw i8, ptr %0, i64 64
  tail call void @av_bprint_clear(ptr noundef nonnull %51) #8
  %52 = getelementptr inbounds nuw i8, ptr %0, i64 1096
  %53 = load i8, ptr %52, align 8, !tbaa !76
  %54 = and i8 %53, -2
  store i8 %54, ptr %52, align 8, !tbaa !76
  br label %56

55:                                               ; preds = %23
  tail call void @llvm.memcpy.p0.p0.i64(ptr noundef nonnull align 8 dereferenceable(16) %2, ptr noundef nonnull align 4 dereferenceable(16) %10, i64 16, i1 false), !tbaa.struct !104
  store i16 %5, ptr %2, align 8, !tbaa !101
  br label %56

56:                                               ; preds = %55, %.thread, %50, %1
  %.034 = phi i32 [ 0, %50 ], [ 1, %1 ], [ 1, %.thread ], [ 1, %55 ]
  ret i32 %.034
}